target datalayout = "e-m:e-p270:32:32-p271:32:32-p272:64:64-i64:64-i128:128-f80:128-n8:16:32:64-S128"
target triple = "x86_64-pc-linux-gnu"

%struct.reassembly_table = type { ptr, ptr, ptr, ptr, ptr }
%struct.reassembly_table_functions = type { ptr, ptr, ptr, ptr, ptr, ptr }

@dcerpc_uuids = global ptr null, align 8
@uuid_dissector_table = internal global ptr null, align 8
@.str.388 = private unnamed_addr constant [7 x i8] c"dcerpc\00", align 1
@.str.389 = private unnamed_addr constant [12 x i8] c"dcerpc.uuid\00", align 1
@.str.390 = private unnamed_addr constant [68 x i8] c"Distributed Computing Environment / Remote Procedure Call (DCE/RPC)\00", align 1
@.str.391 = private unnamed_addr constant [7 x i8] c"DCERPC\00", align 1
@proto_dcerpc = internal global i32 0, align 4
@.str.392 = private unnamed_addr constant [14 x i8] c"DCE/RPC UUIDs\00", align 1
@dcerpc_connections = internal global ptr null, align 8
@dcerpc_binds = internal global ptr null, align 8
@dcerpc_auths = internal global ptr null, align 8
@dcerpc_cn_calls = internal global ptr null, align 8
@dcerpc_dg_calls = internal global ptr null, align 8
@dcerpc_matched = internal global ptr null, align 8
@.str.393 = private unnamed_addr constant [17 x i8] c"desegment_dcerpc\00", align 1
@.str.394 = private unnamed_addr constant [59 x i8] c"Reassemble DCE/RPC messages spanning multiple TCP segments\00", align 1
@.str.395 = private unnamed_addr constant [208 x i8] c"Whether the DCE/RPC dissector should reassemble messages spanning multiple TCP segments. To use this option, you must also enable \22Allow subdissectors to reassemble TCP streams\22 in the TCP protocol settings.\00", align 1
@dcerpc_cn_desegment = internal global i8 1, align 1
@.str.396 = private unnamed_addr constant [18 x i8] c"reassemble_dcerpc\00", align 1
@.str.397 = private unnamed_addr constant [29 x i8] c"Reassemble DCE/RPC fragments\00", align 1
@.str.398 = private unnamed_addr constant [72 x i8] c"Whether the DCE/RPC dissector should reassemble fragmented DCE/RPC PDUs\00", align 1
@dcerpc_reassemble = internal global i8 1, align 1
@dcerpc_co_reassembly_table = internal global %struct.reassembly_table zeroinitializer, align 8
@addresses_reassembly_table_functions = external constant %struct.reassembly_table_functions, align 8
@dcerpc_cl_reassembly_table = internal global %struct.reassembly_table zeroinitializer, align 8
@dcerpc_tap = internal global i32 0, align 4
@TRAILER_SIGNATURE = internal constant [8 x i8] c"\8A\E3\13q\02\F46q", align 1
@tvb_trailer_signature = internal global ptr null, align 8
@.str.399 = private unnamed_addr constant [11 x i8] c"dcerpc.tcp\00", align 1
@dcerpc_tcp_handle = internal global ptr null, align 8

; Function Attrs: null_pointer_is_valid sspstrong uwtable
define hidden void @proto_register_dcerpc() #0 {
  %1 = alloca ptr, align 8
  %2 = alloca ptr, align 8
  call void @llvm.lifetime.start.p0(i64 8, ptr %1) #19
  call void @llvm.lifetime.start.p0(i64 8, ptr %2) #19
  %3 = call i32 @proto_register_protocol(ptr noundef @.str.390, ptr noundef @.str.391, ptr noundef @.str.388)
  store i32 %3, ptr @proto_dcerpc, align 4
  %4 = load i32, ptr @proto_dcerpc, align 4
  call void @proto_register_field_array(i32 noundef %4, ptr noundef @proto_register_dcerpc.hf, i32 noundef 177)
  call void @proto_register_subtree_array(ptr noundef @proto_register_dcerpc.ett, i32 noundef 27)
  %5 = load i32, ptr @proto_dcerpc, align 4
  %6 = call ptr @expert_register_protocol(i32 noundef %5)
  store ptr %6, ptr %2, align 8
  %7 = load ptr, ptr %2, align 8
  call void @expert_register_field_array(ptr noundef %7, ptr noundef @proto_register_dcerpc.ei, i32 noundef 12)
  %8 = load i32, ptr @proto_dcerpc, align 4
  %9 = call ptr @register_dissector_table(ptr noundef @.str.389, ptr noundef @.str.392, i32 noundef %8, i32 noundef 36, i32 noundef 2)
  store ptr %9, ptr @uuid_dissector_table, align 8
  %10 = call ptr @wmem_epan_scope()
  %11 = call ptr @wmem_file_scope()
  %12 = call noalias ptr @wmem_map_new_autoreset(ptr noundef %10, ptr noundef %11, ptr noundef @dcerpc_connection_hash, ptr noundef @dcerpc_connection_equal)
  store ptr %12, ptr @dcerpc_connections, align 8
  %13 = call ptr @wmem_epan_scope()
  %14 = call ptr @wmem_file_scope()
  %15 = call noalias ptr @wmem_map_new_autoreset(ptr noundef %13, ptr noundef %14, ptr noundef @dcerpc_bind_hash, ptr noundef @dcerpc_bind_equal)
  store ptr %15, ptr @dcerpc_binds, align 8
  %16 = call ptr @wmem_epan_scope()
  %17 = call ptr @wmem_file_scope()
  %18 = call noalias ptr @wmem_map_new_autoreset(ptr noundef %16, ptr noundef %17, ptr noundef @dcerpc_auth_context_hash, ptr noundef @dcerpc_auth_context_equal)
  store ptr %18, ptr @dcerpc_auths, align 8
  %19 = call ptr @wmem_epan_scope()
  %20 = call ptr @wmem_file_scope()
  %21 = call noalias ptr @wmem_map_new_autoreset(ptr noundef %19, ptr noundef %20, ptr noundef @dcerpc_cn_call_hash, ptr noundef @dcerpc_cn_call_equal)
  store ptr %21, ptr @dcerpc_cn_calls, align 8
  %22 = call ptr @wmem_epan_scope()
  %23 = call ptr @wmem_file_scope()
  %24 = call noalias ptr @wmem_map_new_autoreset(ptr noundef %22, ptr noundef %23, ptr noundef @dcerpc_dg_call_hash, ptr noundef @dcerpc_dg_call_equal)
  store ptr %24, ptr @dcerpc_dg_calls, align 8
  %25 = call ptr @wmem_epan_scope()
  %26 = call ptr @wmem_file_scope()
  %27 = call noalias ptr @wmem_map_new_autoreset(ptr noundef %25, ptr noundef %26, ptr noundef @dcerpc_matched_hash, ptr noundef @dcerpc_matched_equal)
  store ptr %27, ptr @dcerpc_matched, align 8
  call void @register_init_routine(ptr noundef @decode_dcerpc_inject_bindings)
  %28 = load i32, ptr @proto_dcerpc, align 4
  %29 = call ptr @prefs_register_protocol(i32 noundef %28, ptr noundef null)
  store ptr %29, ptr %1, align 8
  %30 = load ptr, ptr %1, align 8
  call void @prefs_register_bool_preference(ptr noundef %30, ptr noundef @.str.393, ptr noundef @.str.394, ptr noundef @.str.395, ptr noundef @dcerpc_cn_desegment)
  %31 = load ptr, ptr %1, align 8
  call void @prefs_register_bool_preference(ptr noundef %31, ptr noundef @.str.396, ptr noundef @.str.397, ptr noundef @.str.398, ptr noundef @dcerpc_reassemble)
  call void @reassembly_table_register(ptr noundef @dcerpc_co_reassembly_table, ptr noundef @addresses_reassembly_table_functions)
  call void @reassembly_table_register(ptr noundef @dcerpc_cl_reassembly_table, ptr noundef @dcerpc_cl_reassembly_table_functions)
  %32 = call ptr @g_hash_table_new_full(ptr noundef @dcerpc_uuid_hash, ptr noundef @dcerpc_uuid_equal, ptr noundef @g_free, ptr noundef @g_free)
  store ptr %32, ptr @dcerpc_uuids, align 8
  %33 = call i32 @register_tap(ptr noundef @.str.388)
  store i32 %33, ptr @dcerpc_tap, align 4
  call void @register_decode_as(ptr noundef @proto_register_dcerpc.dcerpc_da)
  %34 = load i32, ptr @proto_dcerpc, align 4
  call void @register_srt_table(i32 noundef %34, ptr noundef null, i32 noundef 1, ptr noundef @dcerpcstat_packet, ptr noundef @dcerpcstat_init, ptr noundef @dcerpcstat_param)
  %35 = call ptr @tvb_new_real_data(ptr noundef @TRAILER_SIGNATURE, i32 noundef 8, i32 noundef 8)
  store ptr %35, ptr @tvb_trailer_signature, align 8
  %36 = load i32, ptr @proto_dcerpc, align 4
  %37 = call ptr @register_dissector(ptr noundef @.str.399, ptr noundef @dissect_dcerpc_tcp, i32 noundef %36)
  store ptr %37, ptr @dcerpc_tcp_handle, align 8
  call void @register_shutdown_routine(ptr noundef @dcerpc_shutdown)
  call void @llvm.lifetime.end.p0(i64 8, ptr %2) #19
  call void @llvm.lifetime.end.p0(i64 8, ptr %1) #19
  ret void
}