; Function Attrs: null_pointer_is_valid sspstrong uwtable
define hidden void @proto_register_dcerpc() local_unnamed_addr #0 {
  %1 = tail call i32 @proto_register_protocol(ptr noundef nonnull @.str.390, ptr noundef nonnull @.str.391, ptr noundef nonnull @.str.388)
  store i32 %1, ptr @proto_dcerpc, align 4
  tail call void @proto_register_field_array(i32 noundef %1, ptr noundef nonnull @proto_register_dcerpc.hf, i32 noundef 177)
  tail call void @proto_register_subtree_array(ptr noundef nonnull @proto_register_dcerpc.ett, i32 noundef 27)
  %2 = load i32, ptr @proto_dcerpc, align 4
  %3 = tail call ptr @expert_register_protocol(i32 noundef %2)
  tail call void @expert_register_field_array(ptr noundef %3, ptr noundef nonnull @proto_register_dcerpc.ei, i32 noundef 12)
  %4 = load i32, ptr @proto_dcerpc, align 4
  %5 = tail call ptr @register_dissector_table(ptr noundef nonnull @.str.389, ptr noundef nonnull @.str.392, i32 noundef %4, i32 noundef 36, i32 noundef 2)
  store ptr %5, ptr @uuid_dissector_table, align 8
  %6 = tail call ptr @wmem_epan_scope()
  %7 = tail call ptr @wmem_file_scope()
  %8 = tail call noalias ptr @wmem_map_new_autoreset(ptr noundef %6, ptr noundef %7, ptr noundef nonnull @dcerpc_connection_hash, ptr noundef nonnull @dcerpc_connection_equal)
  store ptr %8, ptr @dcerpc_connections, align 8
  %9 = tail call ptr @wmem_epan_scope()
  %10 = tail call ptr @wmem_file_scope()
  %11 = tail call noalias ptr @wmem_map_new_autoreset(ptr noundef %9, ptr noundef %10, ptr noundef nonnull @dcerpc_bind_hash, ptr noundef nonnull @dcerpc_bind_equal)
  store ptr %11, ptr @dcerpc_binds, align 8
  %12 = tail call ptr @wmem_epan_scope()
  %13 = tail call ptr @wmem_file_scope()
  %14 = tail call noalias ptr @wmem_map_new_autoreset(ptr noundef %12, ptr noundef %13, ptr noundef nonnull @dcerpc_auth_context_hash, ptr noundef nonnull @dcerpc_auth_context_equal)
  store ptr %14, ptr @dcerpc_auths, align 8
  %15 = tail call ptr @wmem_epan_scope()
  %16 = tail call ptr @wmem_file_scope()
  %17 = tail call noalias ptr @wmem_map_new_autoreset(ptr noundef %15, ptr noundef %16, ptr noundef nonnull @dcerpc_cn_call_hash, ptr noundef nonnull @dcerpc_cn_call_equal)
  store ptr %17, ptr @dcerpc_cn_calls, align 8
  %18 = tail call ptr @wmem_epan_scope()
  %19 = tail call ptr @wmem_file_scope()
  %20 = tail call noalias ptr @wmem_map_new_autoreset(ptr noundef %18, ptr noundef %19, ptr noundef nonnull @dcerpc_dg_call_hash, ptr noundef nonnull @dcerpc_dg_call_equal)
  store ptr %20, ptr @dcerpc_dg_calls, align 8
  %21 = tail call ptr @wmem_epan_scope()
  %22 = tail call ptr @wmem_file_scope()
  %23 = tail call noalias ptr @wmem_map_new_autoreset(ptr noundef %21, ptr noundef %22, ptr noundef nonnull @dcerpc_matched_hash, ptr noundef nonnull @dcerpc_matched_equal)
  store ptr %23, ptr @dcerpc_matched, align 8
  tail call void @register_init_routine(ptr noundef nonnull @decode_dcerpc_inject_bindings)
  %24 = load i32, ptr @proto_dcerpc, align 4
  %25 = tail call ptr @prefs_register_protocol(i32 noundef %24, ptr noundef null)
  tail call void @prefs_register_bool_preference(ptr noundef %25, ptr noundef nonnull @.str.393, ptr noundef nonnull @.str.394, ptr noundef nonnull @.str.395, ptr noundef nonnull @dcerpc_cn_desegment)
  tail call void @prefs_register_bool_preference(ptr noundef %25, ptr noundef nonnull @.str.396, ptr noundef nonnull @.str.397, ptr noundef nonnull @.str.398, ptr noundef nonnull @dcerpc_reassemble)
  tail call void @reassembly_table_register(ptr noundef nonnull @dcerpc_co_reassembly_table, ptr noundef nonnull @addresses_reassembly_table_functions)
  tail call void @reassembly_table_register(ptr noundef nonnull @dcerpc_cl_reassembly_table, ptr noundef nonnull @dcerpc_cl_reassembly_table_functions)
  %26 = tail call ptr @g_hash_table_new_full(ptr noundef nonnull @dcerpc_uuid_hash, ptr noundef nonnull @dcerpc_uuid_equal, ptr noundef nonnull @g_free, ptr noundef nonnull @g_free)
  store ptr %26, ptr @dcerpc_uuids, align 8
  %27 = tail call i32 @register_tap(ptr noundef nonnull @.str.388)
  store i32 %27, ptr @dcerpc_tap, align 4
  tail call void @register_decode_as(ptr noundef nonnull @proto_register_dcerpc.dcerpc_da)
  %28 = load i32, ptr @proto_dcerpc, align 4
  tail call void @register_srt_table(i32 noundef %28, ptr noundef null, i32 noundef 1, ptr noundef nonnull @dcerpcstat_packet, ptr noundef nonnull @dcerpcstat_init, ptr noundef nonnull @dcerpcstat_param)
  %29 = tail call ptr @tvb_new_real_data(ptr noundef nonnull @TRAILER_SIGNATURE, i32 noundef 8, i32 noundef 8)
  store ptr %29, ptr @tvb_trailer_signature, align 8
  %30 = load i32, ptr @proto_dcerpc, align 4
  %31 = tail call ptr @register_dissector(ptr noundef nonnull @.str.399, ptr noundef nonnull @dissect_dcerpc_tcp, i32 noundef %30)
  store ptr %31, ptr @dcerpc_tcp_handle, align 8
  tail call void @register_shutdown_routine(ptr noundef nonnull @dcerpc_shutdown)
  ret void
}